target datalayout = "e-m:e-p270:32:32-p271:32:32-p272:64:64-i64:64-i128:128-f80:128-n8:16:32:64-S128"
target triple = "x86_64-pc-linux-gnu"

%struct._zend_array = type { %struct._zend_refcounted_h, %union.anon.4, i32, %union.anon.6, i32, i32, i32, i32, i64, ptr }
%struct._zend_refcounted_h = type { i32, %union.anon.3 }
%union.anon.3 = type { i32 }
%union.anon.4 = type { i32 }
%union.anon.6 = type { ptr }
%struct._phpdbg_watchpoint_t = type { %union.anon.27, i64, i32, ptr, %struct._zend_array, ptr, %union.anon.28 }
%union.anon.27 = type { ptr }
%union.anon.28 = type { %struct._zend_array }
%struct._phpdbg_watch_element = type { i32, ptr, i8, ptr, ptr, %struct._zend_array, ptr, ptr, ptr, %union.anon.29 }
%union.anon.29 = type { %struct._zend_array }

; Function Attrs: nounwind uwtable
define hidden zeroext i1 @phpdbg_is_recursively_watched(ptr noundef %0, ptr noundef %1) #0 {
  %3 = alloca i1, align 1
  %4 = alloca ptr, align 8
  %5 = alloca ptr, align 8
  %6 = alloca ptr, align 8
  store ptr %0, ptr %4, align 8
  store ptr %1, ptr %5, align 8
  %7 = load ptr, ptr %5, align 8
  store ptr %7, ptr %6, align 8
  br label %8

8:                                                ; preds = %22, %2
  %9 = load ptr, ptr %6, align 8
  store ptr %9, ptr %5, align 8
  %10 = load ptr, ptr %5, align 8
  %11 = getelementptr inbounds %struct._phpdbg_watch_element, ptr %10, i32 0, i32 1
  %12 = load ptr, ptr %11, align 8
  %13 = getelementptr inbounds %struct._phpdbg_watchpoint_t, ptr %12, i32 0, i32 0
  %14 = load ptr, ptr %13, align 8
  %15 = load ptr, ptr %4, align 8
  %16 = icmp eq ptr %14, %15
  br i1 %16, label %17, label %18

17:                                               ; preds = %8
  store i1 true, ptr %3, align 1
  br label %31

18:                                               ; preds = %8
  %19 = load ptr, ptr %5, align 8
  %20 = getelementptr inbounds %struct._phpdbg_watch_element, ptr %19, i32 0, i32 4
  %21 = load ptr, ptr %20, align 8
  store ptr %21, ptr %6, align 8
  br label %22

22:                                               ; preds = %18
  %23 = load ptr, ptr %5, align 8
  %24 = getelementptr inbounds %struct._phpdbg_watch_element, ptr %23, i32 0, i32 2
  %25 = load i8, ptr %24, align 8
  %26 = sext i8 %25 to i32
  %27 = and i32 %26, 32
  %28 = icmp ne i32 %27, 0
  %29 = xor i1 %28, true
  br i1 %29, label %8, label %30

30:                                               ; preds = %22
  store i1 false, ptr %3, align 1
  br label %31

31:                                               ; preds = %30, %17
  %32 = load i1, ptr %3, align 1
  ret i1 %32
}