; Function Attrs: nofree norecurse nosync nounwind memory(read, inaccessiblemem: none) uwtable
define hidden noundef zeroext i1 @phpdbg_is_recursively_watched(ptr noundef readnone %0, ptr nocapture noundef readonly %1) local_unnamed_addr #8 {
  br label %3

3:                                                ; preds = %8, %2
  %.0 = phi ptr [ %1, %2 ], [ %10, %8 ]
  %4 = getelementptr inbounds i8, ptr %.0, i64 8
  %5 = load ptr, ptr %4, align 8
  %6 = load ptr, ptr %5, align 8
  %7 = icmp eq ptr %6, %0
  br i1 %7, label %14, label %8

8:                                                ; preds = %3
  %9 = getelementptr inbounds i8, ptr %.0, i64 32
  %10 = load ptr, ptr %9, align 8
  %11 = getelementptr inbounds i8, ptr %.0, i64 16
  %12 = load i8, ptr %11, align 8
  %13 = and i8 %12, 32
  %.not = icmp eq i8 %13, 0
  br i1 %.not, label %3, label %14

14:                                               ; preds = %8, %3
  ret i1 %7
}